; Function Attrs: mustprogress uwtable
define internal fastcc void @_ZN12_GLOBAL__N_18demux_opEPN5Yosys25AbstractCellEdgesDatabaseEPNS0_5RTLIL4CellE(ptr noundef nonnull %0, ptr noundef nonnull %1) unnamed_addr #3 personality ptr @__gxx_personality_v0 {
  %3 = alloca %"struct.Yosys::RTLIL::IdString", align 4
  %4 = alloca %"struct.Yosys::RTLIL::IdString", align 4
  %5 = alloca %"struct.Yosys::RTLIL::IdString", align 4
  %6 = alloca %"struct.Yosys::RTLIL::IdString", align 4
  %7 = tail call noundef nonnull align 8 dereferenceable(56) ptr @_ZNK5Yosys5RTLIL4Cell7getPortERKNS0_8IdStringE(ptr noundef nonnull align 8 dereferenceable(192) %1, ptr noundef nonnull align 4 dereferenceable(4) @_ZN5Yosys5RTLIL2ID1YE)
  %8 = load i32, ptr %7, align 8, !tbaa !33
  %9 = tail call noundef nonnull align 8 dereferenceable(56) ptr @_ZNK5Yosys5RTLIL4Cell7getPortERKNS0_8IdStringE(ptr noundef nonnull align 8 dereferenceable(192) %1, ptr noundef nonnull align 4 dereferenceable(4) @_ZN5Yosys5RTLIL2ID1AE)
  %10 = load i32, ptr %9, align 8, !tbaa !33
  %11 = tail call noundef nonnull align 8 dereferenceable(56) ptr @_ZNK5Yosys5RTLIL4Cell7getPortERKNS0_8IdStringE(ptr noundef nonnull align 8 dereferenceable(192) %1, ptr noundef nonnull align 4 dereferenceable(4) @_ZN5Yosys5RTLIL2ID1SE)
  %12 = load i32, ptr %11, align 8, !tbaa !33
  %13 = icmp sgt i32 %8, 0
  br i1 %13, label %.lr.ph43, label %._crit_edge44

.lr.ph43:                                         ; preds = %2
  %14 = icmp sgt i32 %12, 0
  br label %15

._crit_edge44:                                    ; preds = %._crit_edge, %2
  ret void

15:                                               ; preds = %.lr.ph43, %._crit_edge
  %.02341 = phi i32 [ 0, %.lr.ph43 ], [ %66, %._crit_edge ]
  %16 = load i32, ptr @_ZN5Yosys5RTLIL2ID1AE, align 4, !tbaa !10
  %.not.i.i = icmp eq i32 %16, 0
  br i1 %.not.i.i, label %_ZN5Yosys5RTLIL8IdStringC2ERKS1_.exit, label %17

17:                                               ; preds = %15
  %18 = sext i32 %16 to i64
  %19 = load ptr, ptr @_ZN5Yosys5RTLIL8IdString24global_refcount_storage_E, align 8, !tbaa !15
  %20 = getelementptr inbounds nuw i32, ptr %19, i64 %18
  %21 = load i32, ptr %20, align 4, !tbaa !19
  %22 = add nsw i32 %21, 1
  store i32 %22, ptr %20, align 4, !tbaa !19
  br label %_ZN5Yosys5RTLIL8IdStringC2ERKS1_.exit

_ZN5Yosys5RTLIL8IdStringC2ERKS1_.exit:            ; preds = %15, %17
  store i32 %16, ptr %3, align 4, !tbaa !10
  %23 = load i32, ptr @_ZN5Yosys5RTLIL2ID1YE, align 4, !tbaa !10
  %.not.i.i28 = icmp eq i32 %23, 0
  br i1 %.not.i.i28, label %30, label %24

24:                                               ; preds = %_ZN5Yosys5RTLIL8IdStringC2ERKS1_.exit
  %25 = sext i32 %23 to i64
  %26 = load ptr, ptr @_ZN5Yosys5RTLIL8IdString24global_refcount_storage_E, align 8, !tbaa !15
  %27 = getelementptr inbounds nuw i32, ptr %26, i64 %25
  %28 = load i32, ptr %27, align 4, !tbaa !19
  %29 = add nsw i32 %28, 1
  store i32 %29, ptr %27, align 4, !tbaa !19
  br label %30

30:                                               ; preds = %24, %_ZN5Yosys5RTLIL8IdStringC2ERKS1_.exit
  store i32 %23, ptr %4, align 4, !tbaa !10
  %31 = srem i32 %.02341, %10
  %32 = load ptr, ptr %0, align 8, !tbaa !45
  %33 = getelementptr inbounds nuw i8, ptr %32, i64 16
  %34 = load ptr, ptr %33, align 8
  invoke void %34(ptr noundef nonnull align 8 dereferenceable(8) %0, ptr noundef nonnull %1, ptr noundef nonnull %3, i32 noundef %31, ptr noundef nonnull %4, i32 noundef %.02341, i32 noundef -1)
          to label %35 unwind label %67

35:                                               ; preds = %30
  %36 = load i32, ptr %4, align 4, !tbaa !10
  %37 = load i8, ptr @_ZN5Yosys5RTLIL8IdString17destruct_guard_okE, align 1, !tbaa !26, !range !28, !noundef !29
  %38 = trunc nuw i8 %37 to i1
  %39 = icmp ne i32 %36, 0
  %or.cond.i.i = and i1 %39, %38
  br i1 %or.cond.i.i, label %40, label %_ZN5Yosys5RTLIL8IdStringD2Ev.exit

40:                                               ; preds = %35
  %41 = sext i32 %36 to i64
  %42 = load ptr, ptr @_ZN5Yosys5RTLIL8IdString24global_refcount_storage_E, align 8, !tbaa !15
  %43 = getelementptr inbounds nuw i32, ptr %42, i64 %41
  %44 = load i32, ptr %43, align 4, !tbaa !19
  %45 = add nsw i32 %44, -1
  store i32 %45, ptr %43, align 4, !tbaa !19
  %46 = icmp sgt i32 %44, 1
  br i1 %46, label %_ZN5Yosys5RTLIL8IdStringD2Ev.exit, label %47

47:                                               ; preds = %40
  invoke void @_ZN5Yosys5RTLIL8IdString14free_referenceEi(i32 noundef %36)
          to label %._ZN5Yosys5RTLIL8IdStringD2Ev.exit_crit_edge unwind label %48

._ZN5Yosys5RTLIL8IdStringD2Ev.exit_crit_edge:     ; preds = %47
  %.pre = load i8, ptr @_ZN5Yosys5RTLIL8IdString17destruct_guard_okE, align 1, !tbaa !26, !range !28
  br label %_ZN5Yosys5RTLIL8IdStringD2Ev.exit

48:                                               ; preds = %47
  %49 = landingpad { ptr, i32 }
          catch ptr null
  %50 = extractvalue { ptr, i32 } %49, 0
  call void @__clang_call_terminate(ptr %50) #24
  unreachable

_ZN5Yosys5RTLIL8IdStringD2Ev.exit:                ; preds = %._ZN5Yosys5RTLIL8IdStringD2Ev.exit_crit_edge, %35, %40
  %51 = phi i8 [ %.pre, %._ZN5Yosys5RTLIL8IdStringD2Ev.exit_crit_edge ], [ %37, %35 ], [ 1, %40 ]
  %52 = load i32, ptr %3, align 4, !tbaa !10
  %53 = trunc nuw i8 %51 to i1
  %54 = icmp ne i32 %52, 0
  %or.cond.i.i30 = and i1 %54, %53
  br i1 %or.cond.i.i30, label %55, label %_ZN5Yosys5RTLIL8IdStringD2Ev.exit31

55:                                               ; preds = %_ZN5Yosys5RTLIL8IdStringD2Ev.exit
  %56 = sext i32 %52 to i64
  %57 = load ptr, ptr @_ZN5Yosys5RTLIL8IdString24global_refcount_storage_E, align 8, !tbaa !15
  %58 = getelementptr inbounds nuw i32, ptr %57, i64 %56
  %59 = load i32, ptr %58, align 4, !tbaa !19
  %60 = add nsw i32 %59, -1
  store i32 %60, ptr %58, align 4, !tbaa !19
  %61 = icmp sgt i32 %59, 1
  br i1 %61, label %_ZN5Yosys5RTLIL8IdStringD2Ev.exit31, label %62

62:                                               ; preds = %55
  invoke void @_ZN5Yosys5RTLIL8IdString14free_referenceEi(i32 noundef %52)
          to label %_ZN5Yosys5RTLIL8IdStringD2Ev.exit31 unwind label %63

63:                                               ; preds = %62
  %64 = landingpad { ptr, i32 }
          catch ptr null
  %65 = extractvalue { ptr, i32 } %64, 0
  call void @__clang_call_terminate(ptr %65) #24
  unreachable

_ZN5Yosys5RTLIL8IdStringD2Ev.exit31:              ; preds = %_ZN5Yosys5RTLIL8IdStringD2Ev.exit, %55, %62
  br i1 %14, label %.lr.ph, label %._crit_edge

._crit_edge:                                      ; preds = %_ZN5Yosys5RTLIL8IdStringD2Ev.exit39, %_ZN5Yosys5RTLIL8IdStringD2Ev.exit31
  %66 = add nuw nsw i32 %.02341, 1
  %exitcond45.not = icmp eq i32 %66, %8
  br i1 %exitcond45.not, label %._crit_edge44, label %15, !llvm.loop !186

67:                                               ; preds = %30
  %68 = landingpad { ptr, i32 }
          cleanup
  br label %121

.lr.ph:                                           ; preds = %_ZN5Yosys5RTLIL8IdStringD2Ev.exit31, %_ZN5Yosys5RTLIL8IdStringD2Ev.exit39
  %.040 = phi i32 [ %118, %_ZN5Yosys5RTLIL8IdStringD2Ev.exit39 ], [ 0, %_ZN5Yosys5RTLIL8IdStringD2Ev.exit31 ]
  %69 = load i32, ptr @_ZN5Yosys5RTLIL2ID1SE, align 4, !tbaa !10
  %.not.i.i32 = icmp eq i32 %69, 0
  br i1 %.not.i.i32, label %_ZN5Yosys5RTLIL8IdStringC2ERKS1_.exit33, label %70

70:                                               ; preds = %.lr.ph
  %71 = sext i32 %69 to i64
  %72 = load ptr, ptr @_ZN5Yosys5RTLIL8IdString24global_refcount_storage_E, align 8, !tbaa !15
  %73 = getelementptr inbounds nuw i32, ptr %72, i64 %71
  %74 = load i32, ptr %73, align 4, !tbaa !19
  %75 = add nsw i32 %74, 1
  store i32 %75, ptr %73, align 4, !tbaa !19
  br label %_ZN5Yosys5RTLIL8IdStringC2ERKS1_.exit33

_ZN5Yosys5RTLIL8IdStringC2ERKS1_.exit33:          ; preds = %.lr.ph, %70
  store i32 %69, ptr %5, align 4, !tbaa !10
  %76 = load i32, ptr @_ZN5Yosys5RTLIL2ID1YE, align 4, !tbaa !10
  %.not.i.i34 = icmp eq i32 %76, 0
  br i1 %.not.i.i34, label %83, label %77

77:                                               ; preds = %_ZN5Yosys5RTLIL8IdStringC2ERKS1_.exit33
  %78 = sext i32 %76 to i64
  %79 = load ptr, ptr @_ZN5Yosys5RTLIL8IdString24global_refcount_storage_E, align 8, !tbaa !15
  %80 = getelementptr inbounds nuw i32, ptr %79, i64 %78
  %81 = load i32, ptr %80, align 4, !tbaa !19
  %82 = add nsw i32 %81, 1
  store i32 %82, ptr %80, align 4, !tbaa !19
  br label %83

83:                                               ; preds = %77, %_ZN5Yosys5RTLIL8IdStringC2ERKS1_.exit33
  store i32 %76, ptr %6, align 4, !tbaa !10
  %84 = load ptr, ptr %0, align 8, !tbaa !45
  %85 = getelementptr inbounds nuw i8, ptr %84, i64 16
  %86 = load ptr, ptr %85, align 8
  invoke void %86(ptr noundef nonnull align 8 dereferenceable(8) %0, ptr noundef nonnull %1, ptr noundef nonnull %5, i32 noundef %.040, ptr noundef nonnull %6, i32 noundef %.02341, i32 noundef -1)
          to label %87 unwind label %119

87:                                               ; preds = %83
  %88 = load i32, ptr %6, align 4, !tbaa !10
  %89 = load i8, ptr @_ZN5Yosys5RTLIL8IdString17destruct_guard_okE, align 1, !tbaa !26, !range !28, !noundef !29
  %90 = trunc nuw i8 %89 to i1
  %91 = icmp ne i32 %88, 0
  %or.cond.i.i36 = and i1 %91, %90
  br i1 %or.cond.i.i36, label %92, label %_ZN5Yosys5RTLIL8IdStringD2Ev.exit37

92:                                               ; preds = %87
  %93 = sext i32 %88 to i64
  %94 = load ptr, ptr @_ZN5Yosys5RTLIL8IdString24global_refcount_storage_E, align 8, !tbaa !15
  %95 = getelementptr inbounds nuw i32, ptr %94, i64 %93
  %96 = load i32, ptr %95, align 4, !tbaa !19
  %97 = add nsw i32 %96, -1
  store i32 %97, ptr %95, align 4, !tbaa !19
  %98 = icmp sgt i32 %96, 1
  br i1 %98, label %_ZN5Yosys5RTLIL8IdStringD2Ev.exit37, label %99

99:                                               ; preds = %92
  invoke void @_ZN5Yosys5RTLIL8IdString14free_referenceEi(i32 noundef %88)
          to label %._ZN5Yosys5RTLIL8IdStringD2Ev.exit37_crit_edge unwind label %100

._ZN5Yosys5RTLIL8IdStringD2Ev.exit37_crit_edge:   ; preds = %99
  %.pre46 = load i8, ptr @_ZN5Yosys5RTLIL8IdString17destruct_guard_okE, align 1, !tbaa !26, !range !28
  br label %_ZN5Yosys5RTLIL8IdStringD2Ev.exit37

100:                                              ; preds = %99
  %101 = landingpad { ptr, i32 }
          catch ptr null
  %102 = extractvalue { ptr, i32 } %101, 0
  call void @__clang_call_terminate(ptr %102) #24
  unreachable

_ZN5Yosys5RTLIL8IdStringD2Ev.exit37:              ; preds = %._ZN5Yosys5RTLIL8IdStringD2Ev.exit37_crit_edge, %87, %92
  %103 = phi i8 [ %.pre46, %._ZN5Yosys5RTLIL8IdStringD2Ev.exit37_crit_edge ], [ %89, %87 ], [ 1, %92 ]
  %104 = load i32, ptr %5, align 4, !tbaa !10
  %105 = trunc nuw i8 %103 to i1
  %106 = icmp ne i32 %104, 0
  %or.cond.i.i38 = and i1 %106, %105
  br i1 %or.cond.i.i38, label %107, label %_ZN5Yosys5RTLIL8IdStringD2Ev.exit39

107:                                              ; preds = %_ZN5Yosys5RTLIL8IdStringD2Ev.exit37
  %108 = sext i32 %104 to i64
  %109 = load ptr, ptr @_ZN5Yosys5RTLIL8IdString24global_refcount_storage_E, align 8, !tbaa !15
  %110 = getelementptr inbounds nuw i32, ptr %109, i64 %108
  %111 = load i32, ptr %110, align 4, !tbaa !19
  %112 = add nsw i32 %111, -1
  store i32 %112, ptr %110, align 4, !tbaa !19
  %113 = icmp sgt i32 %111, 1
  br i1 %113, label %_ZN5Yosys5RTLIL8IdStringD2Ev.exit39, label %114

114:                                              ; preds = %107
  invoke void @_ZN5Yosys5RTLIL8IdString14free_referenceEi(i32 noundef %104)
          to label %_ZN5Yosys5RTLIL8IdStringD2Ev.exit39 unwind label %115

115:                                              ; preds = %114
  %116 = landingpad { ptr, i32 }
          catch ptr null
  %117 = extractvalue { ptr, i32 } %116, 0
  call void @__clang_call_terminate(ptr %117) #24
  unreachable

_ZN5Yosys5RTLIL8IdStringD2Ev.exit39:              ; preds = %_ZN5Yosys5RTLIL8IdStringD2Ev.exit37, %107, %114
  %118 = add nuw nsw i32 %.040, 1
  %exitcond.not = icmp eq i32 %118, %12
  br i1 %exitcond.not, label %._crit_edge, label %.lr.ph, !llvm.loop !187

119:                                              ; preds = %83
  %120 = landingpad { ptr, i32 }
          cleanup
  br label %121

121:                                              ; preds = %119, %67
  %.sink47 = phi ptr [ %6, %119 ], [ %4, %67 ]
  %.sink = phi ptr [ %5, %119 ], [ %3, %67 ]
  %.pn25.pn = phi { ptr, i32 } [ %120, %119 ], [ %68, %67 ]
  call void @_ZN5Yosys5RTLIL8IdStringD2Ev(ptr noundef nonnull align 4 dereferenceable(4) %.sink47) #23
  call void @_ZN5Yosys5RTLIL8IdStringD2Ev(ptr noundef nonnull align 4 dereferenceable(4) %.sink) #23
  resume { ptr, i32 } %.pn25.pn
}